target datalayout = "e-m:e-p270:32:32-p271:32:32-p272:64:64-i64:64-i128:128-f80:128-n8:16:32:64-S128"
target triple = "x86_64-pc-linux-gnu"

%"class.std::__cxx11::basic_string" = type { %"struct.std::__cxx11::basic_string<char>::_Alloc_hider", i64, %union.anon }
%"struct.std::__cxx11::basic_string<char>::_Alloc_hider" = type { ptr }
%union.anon = type { i64, [8 x i8] }
%"class.mu::ParserTokenReader" = type <{ ptr, %"class.std::__cxx11::basic_string", i32, i32, i8, [7 x i8], ptr, ptr, ptr, ptr, ptr, ptr, ptr, ptr, ptr, %"class.std::__cxx11::list", %"class.std::map", double, %"class.std::stack", %"class.mu::ParserToken", i8, [7 x i8] }>
%"class.std::__cxx11::list" = type { %"class.std::__cxx11::_List_base" }
%"class.std::__cxx11::_List_base" = type { %"struct.std::__cxx11::_List_base<int (*)(const char *, int *, double *), std::allocator<int (*)(const char *, int *, double *)>>::_List_impl" }
%"struct.std::__cxx11::_List_base<int (*)(const char *, int *, double *), std::allocator<int (*)(const char *, int *, double *)>>::_List_impl" = type { %"struct.std::__detail::_List_node_header" }
%"struct.std::__detail::_List_node_header" = type { %"struct.std::__detail::_List_node_base", i64 }
%"struct.std::__detail::_List_node_base" = type { ptr, ptr }
%"class.std::map" = type { %"class.std::_Rb_tree" }
%"class.std::_Rb_tree" = type { %"struct.std::_Rb_tree<std::__cxx11::basic_string<char>, std::pair<const std::__cxx11::basic_string<char>, double *>, std::_Select1st<std::pair<const std::__cxx11::basic_string<char>, double *>>, std::less<std::__cxx11::basic_string<char>>>::_Rb_tree_impl" }
%"struct.std::_Rb_tree<std::__cxx11::basic_string<char>, std::pair<const std::__cxx11::basic_string<char>, double *>, std::_Select1st<std::pair<const std::__cxx11::basic_string<char>, double *>>, std::less<std::__cxx11::basic_string<char>>>::_Rb_tree_impl" = type { [8 x i8], %"struct.std::_Rb_tree_header" }
%"struct.std::_Rb_tree_header" = type { %"struct.std::_Rb_tree_node_base", i64 }
%"struct.std::_Rb_tree_node_base" = type { i32, ptr, ptr, ptr }
%"class.std::stack" = type { %"class.std::deque" }
%"class.std::deque" = type { %"class.std::_Deque_base" }
%"class.std::_Deque_base" = type { %"struct.std::_Deque_base<int, std::allocator<int>>::_Deque_impl" }
%"struct.std::_Deque_base<int, std::allocator<int>>::_Deque_impl" = type { %"struct.std::_Deque_base<int, std::allocator<int>>::_Deque_impl_data" }
%"struct.std::_Deque_base<int, std::allocator<int>>::_Deque_impl_data" = type { ptr, i64, %"struct.std::_Deque_iterator", %"struct.std::_Deque_iterator" }
%"struct.std::_Deque_iterator" = type { ptr, ptr, ptr, ptr }
%"class.mu::ParserToken" = type { i32, i32, ptr, i32, %"class.std::__cxx11::basic_string", %"class.std::__cxx11::basic_string", double, %"class.std::unique_ptr" }
%"class.std::unique_ptr" = type { %"struct.std::__uniq_ptr_data" }
%"struct.std::__uniq_ptr_data" = type { %"class.std::__uniq_ptr_impl" }
%"class.std::__uniq_ptr_impl" = type { %"class.std::tuple" }
%"class.std::tuple" = type { %"struct.std::_Tuple_impl" }
%"struct.std::_Tuple_impl" = type { %"struct.std::_Head_base.10" }
%"struct.std::_Head_base.10" = type { ptr }
%"struct.std::_List_node" = type { %"struct.std::__detail::_List_node_base", %"struct.__gnu_cxx::__aligned_membuf.14" }
%"struct.__gnu_cxx::__aligned_membuf.14" = type { [8 x i8] }
%"struct.std::_List_iterator" = type { ptr }
%"struct.std::__allocated_ptr" = type { ptr, ptr }

; Function Attrs: mustprogress nounwind uwtable
define linkonce_odr noundef i64 @_ZNKSt15__new_allocatorISt10_List_nodeIPFiPKcPiPdEEE11_M_max_sizeEv(ptr noundef nonnull align 1 dereferenceable(1) %0) #5 comdat align 2 {
  %2 = alloca ptr, align 8
  store ptr %0, ptr %2, align 8, !tbaa !113
  ret i64 384307168202282325
}

; Function Attrs: mustprogress nounwind uwtable
define linkonce_odr void @_ZNSt15__new_allocatorISt10_List_nodeIPFiPKcPiPdEEE10deallocateEPS7_m(ptr noundef nonnull align 1 dereferenceable(1) %0, ptr noundef %1, i64 noundef %2) #5 comdat align 2 {
  %4 = alloca ptr, align 8
  %5 = alloca ptr, align 8
  %6 = alloca i64, align 8
  store ptr %0, ptr %4, align 8, !tbaa !113
  store ptr %1, ptr %5, align 8, !tbaa !204
  store i64 %2, ptr %6, align 8, !tbaa !19
  %7 = load ptr, ptr %5, align 8, !tbaa !204
  call void @_ZdlPv(ptr noundef %7) #22
  ret void
}

; Function Attrs: mustprogress nounwind uwtable
define linkonce_odr noundef ptr @_ZN9__gnu_cxx16__aligned_membufIPFiPKcPiPdEE7_M_addrEv(ptr noundef nonnull align 8 dereferenceable(8) %0) #5 comdat align 2 {
  %2 = alloca ptr, align 8
  store ptr %0, ptr %2, align 8, !tbaa !208
  %3 = load ptr, ptr %2, align 8
  %4 = getelementptr inbounds nuw %"struct.__gnu_cxx::__aligned_membuf.14", ptr %3, i32 0, i32 0
  ret ptr %4
}

; Function Attrs: mustprogress uwtable
define linkonce_odr noundef ptr @_ZNSt15__new_allocatorISt10_List_nodeIPFiPKcPiPdEEE8allocateEmPKv(ptr noundef nonnull align 1 dereferenceable(1) %0, i64 noundef %1, ptr noundef %2) #6 comdat align 2 {
  %4 = alloca ptr, align 8
  %5 = alloca i64, align 8
  %6 = alloca ptr, align 8
  store ptr %0, ptr %4, align 8, !tbaa !113
  store i64 %1, ptr %5, align 8, !tbaa !19
  store ptr %2, ptr %6, align 8, !tbaa !167
  %7 = load ptr, ptr %4, align 8
  %8 = load i64, ptr %5, align 8, !tbaa !19
  %9 = call noundef i64 @_ZNKSt15__new_allocatorISt10_List_nodeIPFiPKcPiPdEEE11_M_max_sizeEv(ptr noundef nonnull align 1 dereferenceable(1) %7) #3
  %10 = icmp ugt i64 %8, %9
  %11 = zext i1 %10 to i64
  %12 = call i64 @llvm.expect.i64(i64 %11, i64 0)
  %13 = icmp ne i64 %12, 0
  br i1 %13, label %14, label %19

14:                                               ; preds = %3
  %15 = load i64, ptr %5, align 8, !tbaa !19
  %16 = icmp ugt i64 %15, 768614336404564650
  br i1 %16, label %17, label %18

17:                                               ; preds = %14
  call void @_ZSt28__throw_bad_array_new_lengthv() #20
  unreachable

18:                                               ; preds = %14
  call void @_ZSt17__throw_bad_allocv() #20
  unreachable

19:                                               ; preds = %3
  %20 = load i64, ptr %5, align 8, !tbaa !19
  %21 = mul i64 %20, 24
  %22 = call noalias noundef nonnull ptr @_Znwm(i64 noundef %21) #23
  ret ptr %22
}

; Function Attrs: noinline noreturn nounwind uwtable
define linkonce_odr hidden void @__clang_call_terminate(ptr noundef %0) #11 comdat {
  %2 = call ptr @__cxa_begin_catch(ptr %0) #3
  call void @_ZSt9terminatev() #21
  unreachable
}

; Function Attrs: mustprogress uwtable
define linkonce_odr void @_ZNSt16allocator_traitsISaISt10_List_nodeIPFiPKcPiPdEEEE10deallocateERS8_PS7_m(ptr noundef nonnull align 1 dereferenceable(1) %0, ptr noundef %1, i64 noundef %2) #6 comdat align 2 {
  %4 = alloca ptr, align 8
  %5 = alloca ptr, align 8
  %6 = alloca i64, align 8
  store ptr %0, ptr %4, align 8, !tbaa !109
  store ptr %1, ptr %5, align 8, !tbaa !204
  store i64 %2, ptr %6, align 8, !tbaa !19
  %7 = load ptr, ptr %4, align 8, !tbaa !109
  %8 = load ptr, ptr %5, align 8, !tbaa !204
  %9 = load i64, ptr %6, align 8, !tbaa !19
  call void @_ZNSt15__new_allocatorISt10_List_nodeIPFiPKcPiPdEEE10deallocateEPS7_m(ptr noundef nonnull align 1 dereferenceable(1) %7, ptr noundef %8, i64 noundef %9)
  ret void
}

; Function Attrs: mustprogress nounwind uwtable
define linkonce_odr void @_ZNSt15__new_allocatorISt10_List_nodeIPFiPKcPiPdEEE9constructIS6_JRKS6_EEEvPT_DpOT0_(ptr noundef nonnull align 1 dereferenceable(1) %0, ptr noundef %1, ptr noundef nonnull align 8 dereferenceable(8) %2) #5 comdat align 2 {
  %4 = alloca ptr, align 8
  %5 = alloca ptr, align 8
  %6 = alloca ptr, align 8
  store ptr %0, ptr %4, align 8, !tbaa !113
  store ptr %1, ptr %5, align 8, !tbaa !206
  store ptr %2, ptr %6, align 8, !tbaa !206
  %7 = load ptr, ptr %5, align 8, !tbaa !206
  %8 = load ptr, ptr %6, align 8, !tbaa !206
  %9 = load ptr, ptr %8, align 8, !tbaa !167
  store ptr %9, ptr %7, align 8, !tbaa !167
  ret void
}

; Function Attrs: mustprogress nounwind uwtable
define linkonce_odr noundef ptr @_ZN9__gnu_cxx16__aligned_membufIPFiPKcPiPdEE6_M_ptrEv(ptr noundef nonnull align 8 dereferenceable(8) %0) #5 comdat align 2 {
  %2 = alloca ptr, align 8
  store ptr %0, ptr %2, align 8, !tbaa !208
  %3 = load ptr, ptr %2, align 8
  %4 = call noundef ptr @_ZN9__gnu_cxx16__aligned_membufIPFiPKcPiPdEE7_M_addrEv(ptr noundef nonnull align 8 dereferenceable(8) %3) #3
  ret ptr %4
}

; Function Attrs: mustprogress uwtable
define linkonce_odr noundef ptr @_ZNSt16allocator_traitsISaISt10_List_nodeIPFiPKcPiPdEEEE8allocateERS8_m(ptr noundef nonnull align 1 dereferenceable(1) %0, i64 noundef %1) #6 comdat align 2 {
  %3 = alloca ptr, align 8
  %4 = alloca i64, align 8
  store ptr %0, ptr %3, align 8, !tbaa !109
  store i64 %1, ptr %4, align 8, !tbaa !19
  %5 = load ptr, ptr %3, align 8, !tbaa !109
  %6 = load i64, ptr %4, align 8, !tbaa !19
  %7 = call noundef ptr @_ZNSt15__new_allocatorISt10_List_nodeIPFiPKcPiPdEEE8allocateEmPKv(ptr noundef nonnull align 1 dereferenceable(1) %5, i64 noundef %6, ptr noundef null)
  ret ptr %7
}

; Function Attrs: mustprogress nounwind uwtable
define linkonce_odr void @_ZNSt15__allocated_ptrISaISt10_List_nodeIPFiPKcPiPdEEEED2Ev(ptr noundef nonnull align 8 dereferenceable(16) %0) unnamed_addr #5 comdat align 2 personality ptr @__gxx_personality_v0 {
  %2 = alloca ptr, align 8
  store ptr %0, ptr %2, align 8, !tbaa !246
  %3 = load ptr, ptr %2, align 8
  %4 = getelementptr inbounds nuw %"struct.std::__allocated_ptr", ptr %3, i32 0, i32 1
  %5 = load ptr, ptr %4, align 8, !tbaa !250
  %6 = icmp ne ptr %5, null
  br i1 %6, label %7, label %13

7:                                                ; preds = %1
  %8 = getelementptr inbounds nuw %"struct.std::__allocated_ptr", ptr %3, i32 0, i32 0
  %9 = load ptr, ptr %8, align 8, !tbaa !248
  %10 = getelementptr inbounds nuw %"struct.std::__allocated_ptr", ptr %3, i32 0, i32 1
  %11 = load ptr, ptr %10, align 8, !tbaa !250
  invoke void @_ZNSt16allocator_traitsISaISt10_List_nodeIPFiPKcPiPdEEEE10deallocateERS8_PS7_m(ptr noundef nonnull align 1 dereferenceable(1) %9, ptr noundef %11, i64 noundef 1)
          to label %12 unwind label %14

12:                                               ; preds = %7
  br label %13

13:                                               ; preds = %12, %1
  ret void

14:                                               ; preds = %7
  %15 = landingpad { ptr, i32 }
          catch ptr null
  %16 = extractvalue { ptr, i32 } %15, 0
  call void @__clang_call_terminate(ptr %16) #21
  unreachable
}

; Function Attrs: mustprogress nounwind uwtable
define linkonce_odr noundef nonnull align 8 dereferenceable(16) ptr @_ZNSt15__allocated_ptrISaISt10_List_nodeIPFiPKcPiPdEEEEaSEDn(ptr noundef nonnull align 8 dereferenceable(16) %0, ptr %1) #5 comdat align 2 {
  %3 = alloca ptr, align 8
  %4 = alloca ptr, align 8
  store ptr %0, ptr %3, align 8, !tbaa !246
  store ptr %1, ptr %4, align 8, !tbaa !251
  %5 = load ptr, ptr %3, align 8
  %6 = getelementptr inbounds nuw %"struct.std::__allocated_ptr", ptr %5, i32 0, i32 1
  store ptr null, ptr %6, align 8, !tbaa !250
  ret ptr %5
}

; Function Attrs: mustprogress nounwind uwtable
define linkonce_odr void @_ZNSt16allocator_traitsISaISt10_List_nodeIPFiPKcPiPdEEEE9constructIS6_JRKS6_EEEvRS8_PT_DpOT0_(ptr noundef nonnull align 1 dereferenceable(1) %0, ptr noundef %1, ptr noundef nonnull align 8 dereferenceable(8) %2) #5 comdat align 2 {
  %4 = alloca ptr, align 8
  %5 = alloca ptr, align 8
  %6 = alloca ptr, align 8
  store ptr %0, ptr %4, align 8, !tbaa !109
  store ptr %1, ptr %5, align 8, !tbaa !206
  store ptr %2, ptr %6, align 8, !tbaa !206
  %7 = load ptr, ptr %4, align 8, !tbaa !109
  %8 = load ptr, ptr %5, align 8, !tbaa !206
  %9 = load ptr, ptr %6, align 8, !tbaa !206
  call void @_ZNSt15__new_allocatorISt10_List_nodeIPFiPKcPiPdEEE9constructIS6_JRKS6_EEEvPT_DpOT0_(ptr noundef nonnull align 1 dereferenceable(1) %7, ptr noundef %8, ptr noundef nonnull align 8 dereferenceable(8) %9) #3
  ret void
}

; Function Attrs: mustprogress nounwind uwtable
define linkonce_odr noundef ptr @_ZNSt10_List_nodeIPFiPKcPiPdEE9_M_valptrEv(ptr noundef nonnull align 8 dereferenceable(24) %0) #5 comdat align 2 {
  %2 = alloca ptr, align 8
  store ptr %0, ptr %2, align 8, !tbaa !204
  %3 = load ptr, ptr %2, align 8
  %4 = getelementptr inbounds nuw %"struct.std::_List_node", ptr %3, i32 0, i32 1
  %5 = call noundef ptr @_ZN9__gnu_cxx16__aligned_membufIPFiPKcPiPdEE6_M_ptrEv(ptr noundef nonnull align 8 dereferenceable(8) %4) #3
  ret ptr %5
}

; Function Attrs: mustprogress nounwind uwtable
define linkonce_odr void @_ZNSt15__allocated_ptrISaISt10_List_nodeIPFiPKcPiPdEEEEC2ERS8_PS7_(ptr noundef nonnull align 8 dereferenceable(16) %0, ptr noundef nonnull align 1 dereferenceable(1) %1, ptr noundef %2) unnamed_addr #5 comdat align 2 {
  %4 = alloca ptr, align 8
  %5 = alloca ptr, align 8
  %6 = alloca ptr, align 8
  store ptr %0, ptr %4, align 8, !tbaa !246
  store ptr %1, ptr %5, align 8, !tbaa !109
  store ptr %2, ptr %6, align 8, !tbaa !204
  %7 = load ptr, ptr %4, align 8
  %8 = getelementptr inbounds nuw %"struct.std::__allocated_ptr", ptr %7, i32 0, i32 0
  %9 = load ptr, ptr %5, align 8, !tbaa !109
  store ptr %9, ptr %8, align 8, !tbaa !248
  %10 = getelementptr inbounds nuw %"struct.std::__allocated_ptr", ptr %7, i32 0, i32 1
  %11 = load ptr, ptr %6, align 8, !tbaa !204
  store ptr %11, ptr %10, align 8, !tbaa !250
  ret void
}

; Function Attrs: mustprogress nounwind uwtable
define linkonce_odr noundef nonnull align 1 dereferenceable(1) ptr @_ZNSt7__cxx1110_List_baseIPFiPKcPiPdESaIS6_EE21_M_get_Node_allocatorEv(ptr noundef nonnull align 8 dereferenceable(24) %0) #5 comdat align 2 {
  %2 = alloca ptr, align 8
  store ptr %0, ptr %2, align 8, !tbaa !105
  %3 = load ptr, ptr %2, align 8
  %4 = getelementptr inbounds nuw %"class.std::__cxx11::_List_base", ptr %3, i32 0, i32 0
  ret ptr %4
}

; Function Attrs: mustprogress uwtable
define linkonce_odr noundef ptr @_ZNSt7__cxx1110_List_baseIPFiPKcPiPdESaIS6_EE11_M_get_nodeEv(ptr noundef nonnull align 8 dereferenceable(24) %0) #6 comdat align 2 {
  %2 = alloca ptr, align 8
  store ptr %0, ptr %2, align 8, !tbaa !105
  %3 = load ptr, ptr %2, align 8
  %4 = getelementptr inbounds nuw %"class.std::__cxx11::_List_base", ptr %3, i32 0, i32 0
  %5 = call noundef ptr @_ZNSt16allocator_traitsISaISt10_List_nodeIPFiPKcPiPdEEEE8allocateERS8_m(ptr noundef nonnull align 1 dereferenceable(1) %4, i64 noundef 1)
  ret ptr %5
}

; Function Attrs: mustprogress nounwind uwtable
define linkonce_odr void @_ZNSt7__cxx1110_List_baseIPFiPKcPiPdESaIS6_EE11_M_inc_sizeEm(ptr noundef nonnull align 8 dereferenceable(24) %0, i64 noundef %1) #5 comdat align 2 {
  %3 = alloca ptr, align 8
  %4 = alloca i64, align 8
  store ptr %0, ptr %3, align 8, !tbaa !105
  store i64 %1, ptr %4, align 8, !tbaa !19
  %5 = load ptr, ptr %3, align 8
  %6 = load i64, ptr %4, align 8, !tbaa !19
  %7 = getelementptr inbounds nuw %"class.std::__cxx11::_List_base", ptr %5, i32 0, i32 0
  %8 = getelementptr inbounds nuw %"struct.std::__cxx11::_List_base<int (*)(const char *, int *, double *), std::allocator<int (*)(const char *, int *, double *)>>::_List_impl", ptr %7, i32 0, i32 0
  %9 = getelementptr inbounds nuw %"struct.std::__detail::_List_node_header", ptr %8, i32 0, i32 1
  %10 = load i64, ptr %9, align 8, !tbaa !240
  %11 = add i64 %10, %6
  store i64 %11, ptr %9, align 8, !tbaa !240
  ret void
}

; Function Attrs: mustprogress uwtable
define linkonce_odr noundef ptr @_ZNSt7__cxx114listIPFiPKcPiPdESaIS6_EE14_M_create_nodeIJRKS6_EEEPSt10_List_nodeIS6_EDpOT_(ptr noundef nonnull align 8 dereferenceable(24) %0, ptr noundef nonnull align 8 dereferenceable(8) %1) #6 comdat align 2 {
  %3 = alloca ptr, align 8
  %4 = alloca ptr, align 8
  %5 = alloca ptr, align 8
  %6 = alloca ptr, align 8
  %7 = alloca %"struct.std::__allocated_ptr", align 8
  store ptr %0, ptr %3, align 8, !tbaa !34
  store ptr %1, ptr %4, align 8, !tbaa !206
  %8 = load ptr, ptr %3, align 8
  call void @llvm.lifetime.start.p0(i64 8, ptr %5) #3
  %9 = call noundef ptr @_ZNSt7__cxx1110_List_baseIPFiPKcPiPdESaIS6_EE11_M_get_nodeEv(ptr noundef nonnull align 8 dereferenceable(24) %8)
  store ptr %9, ptr %5, align 8, !tbaa !204
  call void @llvm.lifetime.start.p0(i64 8, ptr %6) #3
  %10 = call noundef nonnull align 1 dereferenceable(1) ptr @_ZNSt7__cxx1110_List_baseIPFiPKcPiPdESaIS6_EE21_M_get_Node_allocatorEv(ptr noundef nonnull align 8 dereferenceable(24) %8) #3
  store ptr %10, ptr %6, align 8, !tbaa !109
  call void @llvm.lifetime.start.p0(i64 16, ptr %7) #3
  %11 = load ptr, ptr %6, align 8, !tbaa !109
  %12 = load ptr, ptr %5, align 8, !tbaa !204
  call void @_ZNSt15__allocated_ptrISaISt10_List_nodeIPFiPKcPiPdEEEEC2ERS8_PS7_(ptr noundef nonnull align 8 dereferenceable(16) %7, ptr noundef nonnull align 1 dereferenceable(1) %11, ptr noundef %12) #3
  %13 = load ptr, ptr %6, align 8, !tbaa !109
  %14 = load ptr, ptr %5, align 8, !tbaa !204
  %15 = call noundef ptr @_ZNSt10_List_nodeIPFiPKcPiPdEE9_M_valptrEv(ptr noundef nonnull align 8 dereferenceable(24) %14)
  %16 = load ptr, ptr %4, align 8, !tbaa !206
  call void @_ZNSt16allocator_traitsISaISt10_List_nodeIPFiPKcPiPdEEEE9constructIS6_JRKS6_EEEvRS8_PT_DpOT0_(ptr noundef nonnull align 1 dereferenceable(1) %13, ptr noundef %15, ptr noundef nonnull align 8 dereferenceable(8) %16) #3
  %17 = call noundef nonnull align 8 dereferenceable(16) ptr @_ZNSt15__allocated_ptrISaISt10_List_nodeIPFiPKcPiPdEEEEaSEDn(ptr noundef nonnull align 8 dereferenceable(16) %7, ptr null) #3
  %18 = load ptr, ptr %5, align 8, !tbaa !204
  call void @_ZNSt15__allocated_ptrISaISt10_List_nodeIPFiPKcPiPdEEEED2Ev(ptr noundef nonnull align 8 dereferenceable(16) %7) #3
  call void @llvm.lifetime.end.p0(i64 16, ptr %7) #3
  call void @llvm.lifetime.end.p0(i64 8, ptr %6) #3
  call void @llvm.lifetime.end.p0(i64 8, ptr %5) #3
  ret ptr %18
}

; Function Attrs: mustprogress nounwind uwtable
define linkonce_odr void @_ZNSt14_List_iteratorIPFiPKcPiPdEEC2EPNSt8__detail15_List_node_baseE(ptr noundef nonnull align 8 dereferenceable(8) %0, ptr noundef %1) unnamed_addr #5 comdat align 2 {
  %3 = alloca ptr, align 8
  %4 = alloca ptr, align 8
  store ptr %0, ptr %3, align 8, !tbaa !231
  store ptr %1, ptr %4, align 8, !tbaa !203
  %5 = load ptr, ptr %3, align 8
  %6 = getelementptr inbounds nuw %"struct.std::_List_iterator", ptr %5, i32 0, i32 0
  %7 = load ptr, ptr %4, align 8, !tbaa !203
  store ptr %7, ptr %6, align 8, !tbaa !233
  ret void
}

; Function Attrs: mustprogress uwtable
define linkonce_odr void @_ZNSt7__cxx114listIPFiPKcPiPdESaIS6_EE9_M_insertIJRKS6_EEEvSt14_List_iteratorIS6_EDpOT_(ptr noundef nonnull align 8 dereferenceable(24) %0, ptr %1, ptr noundef nonnull align 8 dereferenceable(8) %2) #6 comdat align 2 {
  %4 = alloca %"struct.std::_List_iterator", align 8
  %5 = alloca ptr, align 8
  %6 = alloca ptr, align 8
  %7 = alloca ptr, align 8
  %8 = getelementptr inbounds nuw %"struct.std::_List_iterator", ptr %4, i32 0, i32 0
  store ptr %1, ptr %8, align 8
  store ptr %0, ptr %5, align 8, !tbaa !34
  store ptr %2, ptr %6, align 8, !tbaa !206
  %9 = load ptr, ptr %5, align 8
  call void @llvm.lifetime.start.p0(i64 8, ptr %7) #3
  %10 = load ptr, ptr %6, align 8, !tbaa !206
  %11 = call noundef ptr @_ZNSt7__cxx114listIPFiPKcPiPdESaIS6_EE14_M_create_nodeIJRKS6_EEEPSt10_List_nodeIS6_EDpOT_(ptr noundef nonnull align 8 dereferenceable(24) %9, ptr noundef nonnull align 8 dereferenceable(8) %10)
  store ptr %11, ptr %7, align 8, !tbaa !204
  %12 = load ptr, ptr %7, align 8, !tbaa !204
  %13 = getelementptr inbounds nuw %"struct.std::_List_iterator", ptr %4, i32 0, i32 0
  %14 = load ptr, ptr %13, align 8, !tbaa !233
  call void @_ZNSt8__detail15_List_node_base7_M_hookEPS0_(ptr noundef nonnull align 8 dereferenceable(16) %12, ptr noundef %14) #3
  call void @_ZNSt7__cxx1110_List_baseIPFiPKcPiPdESaIS6_EE11_M_inc_sizeEm(ptr noundef nonnull align 8 dereferenceable(24) %9, i64 noundef 1)
  call void @llvm.lifetime.end.p0(i64 8, ptr %7) #3
  ret void
}

; Function Attrs: mustprogress nounwind uwtable
define linkonce_odr ptr @_ZNSt7__cxx114listIPFiPKcPiPdESaIS6_EE5beginEv(ptr noundef nonnull align 8 dereferenceable(24) %0) #5 comdat align 2 {
  %2 = alloca %"struct.std::_List_iterator", align 8
  %3 = alloca ptr, align 8
  store ptr %0, ptr %3, align 8, !tbaa !34
  %4 = load ptr, ptr %3, align 8
  %5 = getelementptr inbounds nuw %"class.std::__cxx11::_List_base", ptr %4, i32 0, i32 0
  %6 = getelementptr inbounds nuw %"struct.std::__cxx11::_List_base<int (*)(const char *, int *, double *), std::allocator<int (*)(const char *, int *, double *)>>::_List_impl", ptr %5, i32 0, i32 0
  %7 = getelementptr inbounds nuw %"struct.std::__detail::_List_node_base", ptr %6, i32 0, i32 0
  %8 = load ptr, ptr %7, align 8, !tbaa !116
  call void @_ZNSt14_List_iteratorIPFiPKcPiPdEEC2EPNSt8__detail15_List_node_baseE(ptr noundef nonnull align 8 dereferenceable(8) %2, ptr noundef %8) #3
  %9 = getelementptr inbounds nuw %"struct.std::_List_iterator", ptr %2, i32 0, i32 0
  %10 = load ptr, ptr %9, align 8
  ret ptr %10
}

; Function Attrs: mustprogress uwtable
define linkonce_odr void @_ZNSt7__cxx114listIPFiPKcPiPdESaIS6_EE10push_frontERKS6_(ptr noundef nonnull align 8 dereferenceable(24) %0, ptr noundef nonnull align 8 dereferenceable(8) %1) #6 comdat align 2 {
  %3 = alloca ptr, align 8
  %4 = alloca ptr, align 8
  %5 = alloca %"struct.std::_List_iterator", align 8
  store ptr %0, ptr %3, align 8, !tbaa !34
  store ptr %1, ptr %4, align 8, !tbaa !206
  %6 = load ptr, ptr %3, align 8
  %7 = call ptr @_ZNSt7__cxx114listIPFiPKcPiPdESaIS6_EE5beginEv(ptr noundef nonnull align 8 dereferenceable(24) %6) #3
  %8 = getelementptr inbounds nuw %"struct.std::_List_iterator", ptr %5, i32 0, i32 0
  store ptr %7, ptr %8, align 8
  %9 = load ptr, ptr %4, align 8, !tbaa !206
  %10 = getelementptr inbounds nuw %"struct.std::_List_iterator", ptr %5, i32 0, i32 0
  %11 = load ptr, ptr %10, align 8
  call void @_ZNSt7__cxx114listIPFiPKcPiPdESaIS6_EE9_M_insertIJRKS6_EEEvSt14_List_iteratorIS6_EDpOT_(ptr noundef nonnull align 8 dereferenceable(24) %6, ptr %11, ptr noundef nonnull align 8 dereferenceable(8) %9)
  ret void
}

; Function Attrs: mustprogress uwtable
define void @_ZN2mu17ParserTokenReader11AddValIdentEPFiPKcPiPdE(ptr noundef nonnull align 8 dereferenceable(400) %0, ptr noundef %1) #6 align 2 {
  %3 = alloca ptr, align 8
  %4 = alloca ptr, align 8
  store ptr %0, ptr %3, align 8, !tbaa !32
  store ptr %1, ptr %4, align 8, !tbaa !167
  %5 = load ptr, ptr %3, align 8
  %6 = getelementptr inbounds nuw %"class.mu::ParserTokenReader", ptr %5, i32 0, i32 15
  call void @_ZNSt7__cxx114listIPFiPKcPiPdESaIS6_EE10push_frontERKS6_(ptr noundef nonnull align 8 dereferenceable(24) %6, ptr noundef nonnull align 8 dereferenceable(8) %4)
  ret void
}