; Function Attrs: mustprogress uwtable
define void @_ZN2mu17ParserTokenReader11AddValIdentEPFiPKcPiPdE(ptr noundef nonnull align 8 captures(none) dereferenceable(400) %0, ptr noundef %1) local_unnamed_addr #11 align 2 personality ptr @__gxx_personality_v0 {
  %3 = getelementptr inbounds nuw i8, ptr %0, i64 128
  %4 = load ptr, ptr %3, align 8, !tbaa !17
  %5 = tail call noalias noundef nonnull dereferenceable(24) ptr @_Znwm(i64 noundef 24) #29
  %6 = getelementptr inbounds nuw i8, ptr %5, i64 16
  store ptr %1, ptr %6, align 8, !tbaa !85
  tail call void @_ZNSt8__detail15_List_node_base7_M_hookEPS0_(ptr noundef nonnull align 8 dereferenceable(16) %5, ptr noundef %4) #26
  %7 = getelementptr inbounds nuw i8, ptr %0, i64 144
  %8 = load i64, ptr %7, align 8, !tbaa !87
  %9 = add i64 %8, 1
  store i64 %9, ptr %7, align 8, !tbaa !87
  ret void
}